; Function Attrs: mustprogress uwtable
define void @_ZN7httplib6Client14set_basic_authERKNSt7__cxx1112basic_stringIcSt11char_traitsIcESaIcEEES8_(ptr nocapture noundef nonnull readonly align 8 dereferenceable(9) %this, ptr noundef nonnull align 8 dereferenceable(32) %username, ptr noundef nonnull align 8 dereferenceable(32) %password) local_unnamed_addr #5 align 2 {
entry:
  %0 = load ptr, ptr %this, align 8
  %basic_auth_username_.i = getelementptr inbounds i8, ptr %0, i64 440
  %call.i = tail call noundef nonnull align 8 dereferenceable(32) ptr @_ZNSt7__cxx1112basic_stringIcSt11char_traitsIcESaIcEEaSERKS4_(ptr noundef nonnull align 8 dereferenceable(32) %basic_auth_username_.i, ptr noundef nonnull align 8 dereferenceable(32) %username)
  %basic_auth_password_.i = getelementptr inbounds i8, ptr %0, i64 472
  %call2.i = tail call noundef nonnull align 8 dereferenceable(32) ptr @_ZNSt7__cxx1112basic_stringIcSt11char_traitsIcESaIcEEaSERKS4_(ptr noundef nonnull align 8 dereferenceable(32) %basic_auth_password_.i, ptr noundef nonnull align 8 dereferenceable(32) %password)
  ret void
}